target datalayout = "e-m:e-p270:32:32-p271:32:32-p272:64:64-i64:64-i128:128-f80:128-n8:16:32:64-S128"
target triple = "x86_64-pc-linux-gnu"

%struct.jv = type { i8, i8, i16, i32, %union.anon }
%union.anon = type { ptr }

@.str.185 = private unnamed_addr constant [1 x i8] zeroinitializer, align 1
@.str.206 = private unnamed_addr constant [3 x i8] c"\\0\00", align 1

; Function Attrs: nounwind uwtable
define internal { i64, ptr } @escape_string(i64 %0, ptr %1, ptr noundef %2) #0 {
  %4 = alloca %struct.jv, align 8
  %5 = alloca %struct.jv, align 8
  %6 = alloca ptr, align 8
  %7 = alloca [128 x ptr], align 16
  %8 = alloca ptr, align 8
  %9 = alloca ptr, align 8
  %10 = alloca ptr, align 8
  %11 = alloca %struct.jv, align 8
  %12 = alloca ptr, align 8
  %13 = alloca i32, align 4
  %14 = alloca %struct.jv, align 8
  %15 = alloca %struct.jv, align 8
  %16 = getelementptr inbounds nuw { i64, ptr }, ptr %5, i32 0, i32 0
  store i64 %0, ptr %16, align 8
  %17 = getelementptr inbounds nuw { i64, ptr }, ptr %5, i32 0, i32 1
  store ptr %1, ptr %17, align 8
  store ptr %2, ptr %6, align 8, !tbaa !12
  call void @llvm.lifetime.start.p0(i64 1024, ptr %7) #10
  call void @llvm.memset.p0.i64(ptr align 16 %7, i8 0, i64 1024, i1 false)
  call void @llvm.lifetime.start.p0(i64 8, ptr %8) #10
  %18 = load ptr, ptr %6, align 8, !tbaa !12
  store ptr %18, ptr %8, align 8, !tbaa !12
  %19 = getelementptr inbounds [128 x ptr], ptr %7, i64 0, i64 0
  store ptr @.str.206, ptr %19, align 16, !tbaa !12
  br label %20

20:                                               ; preds = %24, %3
  %21 = load ptr, ptr %8, align 8, !tbaa !12
  %22 = load i8, ptr %21, align 1, !tbaa !5
  %23 = icmp ne i8 %22, 0
  br i1 %23, label %24, label %40

24:                                               ; preds = %20
  %25 = load ptr, ptr %8, align 8, !tbaa !12
  %26 = getelementptr inbounds i8, ptr %25, i64 1
  %27 = load ptr, ptr %8, align 8, !tbaa !12
  %28 = load i8, ptr %27, align 1, !tbaa !5
  %29 = sext i8 %28 to i32
  %30 = sext i32 %29 to i64
  %31 = getelementptr inbounds [128 x ptr], ptr %7, i64 0, i64 %30
  store ptr %26, ptr %31, align 8, !tbaa !12
  %32 = load ptr, ptr %8, align 8, !tbaa !12
  %33 = getelementptr inbounds nuw i8, ptr %32, i32 1
  store ptr %33, ptr %8, align 8, !tbaa !12
  %34 = load ptr, ptr %8, align 8, !tbaa !12
  %35 = call i64 @strlen(ptr noundef %34) #12
  %36 = load ptr, ptr %8, align 8, !tbaa !12
  %37 = getelementptr inbounds nuw i8, ptr %36, i64 %35
  store ptr %37, ptr %8, align 8, !tbaa !12
  %38 = load ptr, ptr %8, align 8, !tbaa !12
  %39 = getelementptr inbounds nuw i8, ptr %38, i32 1
  store ptr %39, ptr %8, align 8, !tbaa !12
  br label %20, !llvm.loop !90

40:                                               ; preds = %20
  %41 = call { i64, ptr } @jv_string(ptr noundef @.str.185)
  %42 = getelementptr inbounds nuw { i64, ptr }, ptr %4, i32 0, i32 0
  %43 = extractvalue { i64, ptr } %41, 0
  store i64 %43, ptr %42, align 8
  %44 = getelementptr inbounds nuw { i64, ptr }, ptr %4, i32 0, i32 1
  %45 = extractvalue { i64, ptr } %41, 1
  store ptr %45, ptr %44, align 8
  call void @llvm.lifetime.start.p0(i64 8, ptr %9) #10
  %46 = getelementptr inbounds nuw { i64, ptr }, ptr %5, i32 0, i32 0
  %47 = load i64, ptr %46, align 8
  %48 = getelementptr inbounds nuw { i64, ptr }, ptr %5, i32 0, i32 1
  %49 = load ptr, ptr %48, align 8
  %50 = call ptr @jv_string_value(i64 %47, ptr %49)
  store ptr %50, ptr %9, align 8, !tbaa !12
  call void @llvm.lifetime.start.p0(i64 8, ptr %10) #10
  %51 = load ptr, ptr %9, align 8, !tbaa !12
  %52 = getelementptr inbounds nuw { i64, ptr }, ptr %5, i32 0, i32 0
  %53 = load i64, ptr %52, align 8
  %54 = getelementptr inbounds nuw { i64, ptr }, ptr %5, i32 0, i32 1
  %55 = load ptr, ptr %54, align 8
  %56 = call { i64, ptr } @jv_copy(i64 %53, ptr %55)
  %57 = getelementptr inbounds nuw { i64, ptr }, ptr %11, i32 0, i32 0
  %58 = extractvalue { i64, ptr } %56, 0
  store i64 %58, ptr %57, align 8
  %59 = getelementptr inbounds nuw { i64, ptr }, ptr %11, i32 0, i32 1
  %60 = extractvalue { i64, ptr } %56, 1
  store ptr %60, ptr %59, align 8
  %61 = getelementptr inbounds nuw { i64, ptr }, ptr %11, i32 0, i32 0
  %62 = load i64, ptr %61, align 8
  %63 = getelementptr inbounds nuw { i64, ptr }, ptr %11, i32 0, i32 1
  %64 = load ptr, ptr %63, align 8
  %65 = call i32 @jv_string_length_bytes(i64 %62, ptr %64)
  %66 = sext i32 %65 to i64
  %67 = getelementptr inbounds i8, ptr %51, i64 %66
  store ptr %67, ptr %10, align 8, !tbaa !12
  call void @llvm.lifetime.start.p0(i64 8, ptr %12) #10
  call void @llvm.lifetime.start.p0(i64 4, ptr %13) #10
  store i32 0, ptr %13, align 4, !tbaa !10
  br label %68

68:                                               ; preds = %113, %40
  %69 = load ptr, ptr %9, align 8, !tbaa !12
  store ptr %69, ptr %12, align 8, !tbaa !12
  %70 = load ptr, ptr %10, align 8, !tbaa !12
  %71 = call ptr @jvp_utf8_next(ptr noundef %69, ptr noundef %70, ptr noundef %13)
  store ptr %71, ptr %9, align 8, !tbaa !12
  %72 = icmp ne ptr %71, null
  br i1 %72, label %73, label %114

73:                                               ; preds = %68
  %74 = load i32, ptr %13, align 4, !tbaa !10
  %75 = icmp slt i32 %74, 128
  br i1 %75, label %76, label %96

76:                                               ; preds = %73
  %77 = load i32, ptr %13, align 4, !tbaa !10
  %78 = sext i32 %77 to i64
  %79 = getelementptr inbounds [128 x ptr], ptr %7, i64 0, i64 %78
  %80 = load ptr, ptr %79, align 8, !tbaa !12
  %81 = icmp ne ptr %80, null
  br i1 %81, label %82, label %96

82:                                               ; preds = %76
  call void @llvm.lifetime.start.p0(i64 16, ptr %14) #10
  %83 = load i32, ptr %13, align 4, !tbaa !10
  %84 = sext i32 %83 to i64
  %85 = getelementptr inbounds [128 x ptr], ptr %7, i64 0, i64 %84
  %86 = load ptr, ptr %85, align 8, !tbaa !12
  %87 = getelementptr inbounds nuw { i64, ptr }, ptr %4, i32 0, i32 0
  %88 = load i64, ptr %87, align 8
  %89 = getelementptr inbounds nuw { i64, ptr }, ptr %4, i32 0, i32 1
  %90 = load ptr, ptr %89, align 8
  %91 = call { i64, ptr } @jv_string_append_str(i64 %88, ptr %90, ptr noundef %86)
  %92 = getelementptr inbounds nuw { i64, ptr }, ptr %14, i32 0, i32 0
  %93 = extractvalue { i64, ptr } %91, 0
  store i64 %93, ptr %92, align 8
  %94 = getelementptr inbounds nuw { i64, ptr }, ptr %14, i32 0, i32 1
  %95 = extractvalue { i64, ptr } %91, 1
  store ptr %95, ptr %94, align 8
  call void @llvm.memcpy.p0.p0.i64(ptr align 8 %4, ptr align 8 %14, i64 16, i1 false), !tbaa.struct !4
  call void @llvm.lifetime.end.p0(i64 16, ptr %14) #10
  br label %113

96:                                               ; preds = %76, %73
  call void @llvm.lifetime.start.p0(i64 16, ptr %15) #10
  %97 = load ptr, ptr %12, align 8, !tbaa !12
  %98 = load ptr, ptr %9, align 8, !tbaa !12
  %99 = load ptr, ptr %12, align 8, !tbaa !12
  %100 = ptrtoint ptr %98 to i64
  %101 = ptrtoint ptr %99 to i64
  %102 = sub i64 %100, %101
  %103 = trunc i64 %102 to i32
  %104 = getelementptr inbounds nuw { i64, ptr }, ptr %4, i32 0, i32 0
  %105 = load i64, ptr %104, align 8
  %106 = getelementptr inbounds nuw { i64, ptr }, ptr %4, i32 0, i32 1
  %107 = load ptr, ptr %106, align 8
  %108 = call { i64, ptr } @jv_string_append_buf(i64 %105, ptr %107, ptr noundef %97, i32 noundef %103)
  %109 = getelementptr inbounds nuw { i64, ptr }, ptr %15, i32 0, i32 0
  %110 = extractvalue { i64, ptr } %108, 0
  store i64 %110, ptr %109, align 8
  %111 = getelementptr inbounds nuw { i64, ptr }, ptr %15, i32 0, i32 1
  %112 = extractvalue { i64, ptr } %108, 1
  store ptr %112, ptr %111, align 8
  call void @llvm.memcpy.p0.p0.i64(ptr align 8 %4, ptr align 8 %15, i64 16, i1 false), !tbaa.struct !4
  call void @llvm.lifetime.end.p0(i64 16, ptr %15) #10
  br label %113

113:                                              ; preds = %96, %82
  br label %68, !llvm.loop !91

114:                                              ; preds = %68
  %115 = getelementptr inbounds nuw { i64, ptr }, ptr %5, i32 0, i32 0
  %116 = load i64, ptr %115, align 8
  %117 = getelementptr inbounds nuw { i64, ptr }, ptr %5, i32 0, i32 1
  %118 = load ptr, ptr %117, align 8
  call void @jv_free(i64 %116, ptr %118)
  call void @llvm.lifetime.end.p0(i64 4, ptr %13) #10
  call void @llvm.lifetime.end.p0(i64 8, ptr %12) #10
  call void @llvm.lifetime.end.p0(i64 8, ptr %10) #10
  call void @llvm.lifetime.end.p0(i64 8, ptr %9) #10
  call void @llvm.lifetime.end.p0(i64 8, ptr %8) #10
  call void @llvm.lifetime.end.p0(i64 1024, ptr %7) #10
  %119 = load { i64, ptr }, ptr %4, align 8
  ret { i64, ptr } %119
}