; Function Attrs: nounwind uwtable
define internal fastcc { i64, ptr } @escape_string(i64 %0, ptr %1, ptr noundef %2) unnamed_addr #0 {
  %4 = alloca [128 x ptr], align 16
  %5 = alloca i32, align 4
  call void @llvm.lifetime.start.p0(i64 1024, ptr nonnull %4) #14
  call void @llvm.memset.p0.i64(ptr noundef nonnull align 16 dereferenceable(1024) %4, i8 0, i64 1024, i1 false)
  store ptr @.str.206, ptr %4, align 16, !tbaa !38
  %6 = load i8, ptr %2, align 1, !tbaa !25
  %.not37 = icmp eq i8 %6, 0
  br i1 %.not37, label %._crit_edge, label %.lr.ph

.lr.ph:                                           ; preds = %3, %.lr.ph
  %7 = phi i8 [ %14, %.lr.ph ], [ %6, %3 ]
  %.038 = phi ptr [ %13, %.lr.ph ], [ %2, %3 ]
  %8 = getelementptr inbounds nuw i8, ptr %.038, i64 1
  %9 = sext i8 %7 to i64
  %10 = getelementptr inbounds [128 x ptr], ptr %4, i64 0, i64 %9
  store ptr %8, ptr %10, align 8, !tbaa !38
  %11 = tail call i64 @strlen(ptr noundef nonnull dereferenceable(1) %8) #17
  %12 = getelementptr inbounds nuw i8, ptr %8, i64 %11
  %13 = getelementptr inbounds nuw i8, ptr %12, i64 1
  %14 = load i8, ptr %13, align 1, !tbaa !25
  %.not = icmp eq i8 %14, 0
  br i1 %.not, label %._crit_edge, label %.lr.ph, !llvm.loop !71

._crit_edge:                                      ; preds = %.lr.ph, %3
  %15 = tail call { i64, ptr } @jv_string(ptr noundef nonnull @.str.185) #14
  %16 = tail call ptr @jv_string_value(i64 %0, ptr %1) #14
  %17 = tail call { i64, ptr } @jv_copy(i64 %0, ptr %1) #14
  %18 = extractvalue { i64, ptr } %17, 0
  %19 = extractvalue { i64, ptr } %17, 1
  %20 = tail call i32 @jv_string_length_bytes(i64 %18, ptr %19) #14
  %21 = sext i32 %20 to i64
  %22 = getelementptr inbounds i8, ptr %16, i64 %21
  call void @llvm.lifetime.start.p0(i64 4, ptr nonnull %5) #14
  store i32 0, ptr %5, align 4, !tbaa !19
  %23 = call ptr @jvp_utf8_next(ptr noundef %16, ptr noundef %22, ptr noundef nonnull %5) #14
  %.not3241 = icmp eq ptr %23, null
  br i1 %.not3241, label %._crit_edge47, label %.lr.ph46

.lr.ph46:                                         ; preds = %._crit_edge, %39
  %24 = phi ptr [ %40, %39 ], [ %23, %._crit_edge ]
  %.pn.pn = phi { i64, ptr } [ %.pn, %39 ], [ %15, %._crit_edge ]
  %.02742 = phi ptr [ %24, %39 ], [ %16, %._crit_edge ]
  %.sroa.6.043 = extractvalue { i64, ptr } %.pn.pn, 1
  %.sroa.023.044 = extractvalue { i64, ptr } %.pn.pn, 0
  %25 = load i32, ptr %5, align 4, !tbaa !19
  %26 = icmp slt i32 %25, 128
  br i1 %26, label %27, label %33

27:                                               ; preds = %.lr.ph46
  %28 = sext i32 %25 to i64
  %29 = getelementptr inbounds [128 x ptr], ptr %4, i64 0, i64 %28
  %30 = load ptr, ptr %29, align 8, !tbaa !38
  %.not33 = icmp eq ptr %30, null
  br i1 %.not33, label %33, label %31

31:                                               ; preds = %27
  %32 = call { i64, ptr } @jv_string_append_str(i64 %.sroa.023.044, ptr %.sroa.6.043, ptr noundef nonnull %30) #14
  br label %39

33:                                               ; preds = %27, %.lr.ph46
  %34 = ptrtoint ptr %24 to i64
  %35 = ptrtoint ptr %.02742 to i64
  %36 = sub i64 %34, %35
  %37 = trunc i64 %36 to i32
  %38 = call { i64, ptr } @jv_string_append_buf(i64 %.sroa.023.044, ptr %.sroa.6.043, ptr noundef %.02742, i32 noundef %37) #14
  br label %39

39:                                               ; preds = %33, %31
  %.pn = phi { i64, ptr } [ %32, %31 ], [ %38, %33 ]
  %40 = call ptr @jvp_utf8_next(ptr noundef nonnull %24, ptr noundef %22, ptr noundef nonnull %5) #14
  %.not32 = icmp eq ptr %40, null
  br i1 %.not32, label %._crit_edge47, label %.lr.ph46, !llvm.loop !72

._crit_edge47:                                    ; preds = %39, %._crit_edge
  %.pn34.lcssa = phi { i64, ptr } [ %15, %._crit_edge ], [ %.pn, %39 ]
  call void @jv_free(i64 %0, ptr %1) #14
  call void @llvm.lifetime.end.p0(i64 4, ptr nonnull %5) #14
  call void @llvm.lifetime.end.p0(i64 1024, ptr nonnull %4) #14
  ret { i64, ptr } %.pn34.lcssa
}